target datalayout = "e-m:e-p270:32:32-p271:32:32-p272:64:64-i64:64-i128:128-f80:128-n8:16:32:64-S128"
target triple = "x86_64-pc-linux-gnu"

; Function Attrs: alwaysinline nounwind uwtable
define internal ptr @tsd_tsdn(ptr noundef %0) #2 {
  %2 = alloca ptr, align 8
  store ptr %0, ptr %2, align 8, !tbaa !4
  %3 = load ptr, ptr %2, align 8, !tbaa !4
  ret ptr %3
}

; Function Attrs: nounwind uwtable
define internal i32 @experimental_hooks_remove_ctl(ptr noundef %0, ptr noundef %1, i64 noundef %2, ptr noundef %3, ptr noundef %4, ptr noundef %5, i64 noundef %6) #0 {
  %8 = alloca ptr, align 8
  %9 = alloca ptr, align 8
  %10 = alloca i64, align 8
  %11 = alloca ptr, align 8
  %12 = alloca ptr, align 8
  %13 = alloca ptr, align 8
  %14 = alloca i64, align 8
  %15 = alloca i32, align 4
  %16 = alloca ptr, align 8
  store ptr %0, ptr %8, align 8, !tbaa !4
  store ptr %1, ptr %9, align 8, !tbaa !12
  store i64 %2, ptr %10, align 8, !tbaa !14
  store ptr %3, ptr %11, align 8, !tbaa !11
  store ptr %4, ptr %12, align 8, !tbaa !12
  store ptr %5, ptr %13, align 8, !tbaa !11
  store i64 %6, ptr %14, align 8, !tbaa !14
  call void @llvm.lifetime.start.p0(i64 4, ptr %15) #13
  br label %17

17:                                               ; preds = %7
  %18 = load ptr, ptr %11, align 8, !tbaa !11
  %19 = icmp ne ptr %18, null
  br i1 %19, label %23, label %20

20:                                               ; preds = %17
  %21 = load ptr, ptr %12, align 8, !tbaa !12
  %22 = icmp ne ptr %21, null
  br i1 %22, label %23, label %24

23:                                               ; preds = %20, %17
  store i32 1, ptr %15, align 4, !tbaa !20
  br label %47

24:                                               ; preds = %20
  br label %25

25:                                               ; preds = %24
  br label %26

26:                                               ; preds = %25
  store ptr null, ptr %16, align 8, !tbaa !11
  br label %27

27:                                               ; preds = %26
  %28 = load ptr, ptr %13, align 8, !tbaa !11
  %29 = icmp ne ptr %28, null
  br i1 %29, label %30, label %37

30:                                               ; preds = %27
  %31 = load i64, ptr %14, align 8, !tbaa !14
  %32 = icmp ne i64 %31, 8
  br i1 %32, label %33, label %34

33:                                               ; preds = %30
  store i32 22, ptr %15, align 4, !tbaa !20
  br label %47

34:                                               ; preds = %30
  %35 = load ptr, ptr %13, align 8, !tbaa !11
  %36 = load ptr, ptr %35, align 8, !tbaa !11
  store ptr %36, ptr %16, align 8, !tbaa !11
  br label %37

37:                                               ; preds = %34, %27
  br label %38

38:                                               ; preds = %37
  br label %39

39:                                               ; preds = %38
  %40 = load ptr, ptr %16, align 8, !tbaa !11
  %41 = icmp eq ptr %40, null
  br i1 %41, label %42, label %43

42:                                               ; preds = %39
  store i32 22, ptr %15, align 4, !tbaa !20
  br label %47

43:                                               ; preds = %39
  %44 = load ptr, ptr %8, align 8, !tbaa !4
  %45 = call ptr @tsd_tsdn(ptr noundef %44)
  %46 = load ptr, ptr %16, align 8, !tbaa !11
  call void @je_hook_remove(ptr noundef %45, ptr noundef %46)
  store i32 0, ptr %15, align 4, !tbaa !20
  br label %47

47:                                               ; preds = %43, %42, %33, %23
  %48 = load i32, ptr %15, align 4, !tbaa !20
  call void @llvm.lifetime.end.p0(i64 4, ptr %15) #13
  ret i32 %48
}