; Function Attrs: nounwind uwtable
define internal range(i32 0, 23) i32 @experimental_hooks_remove_ctl(ptr noundef %0, ptr readnone captures(none) %1, i64 %2, ptr noundef readnone captures(address_is_null) %3, ptr noundef readnone captures(address_is_null) %4, ptr noundef readonly captures(address_is_null) %5, i64 noundef %6) #0 {
  %8 = icmp ne ptr %3, null
  %9 = icmp ne ptr %4, null
  %or.cond = or i1 %8, %9
  br i1 %or.cond, label %.thread, label %10

10:                                               ; preds = %7
  %.not = icmp ne ptr %5, null
  %.not11 = icmp eq i64 %6, 8
  %or.cond13 = and i1 %.not, %.not11
  br i1 %or.cond13, label %11, label %.thread

11:                                               ; preds = %10
  %12 = load ptr, ptr %5, align 8, !tbaa !230
  %13 = icmp eq ptr %12, null
  br i1 %13, label %.thread, label %14

14:                                               ; preds = %11
  tail call void @je_hook_remove(ptr noundef %0, ptr noundef nonnull %12) #15
  br label %.thread

.thread:                                          ; preds = %10, %11, %7, %14
  %.09 = phi i32 [ 0, %14 ], [ 1, %7 ], [ 22, %11 ], [ 22, %10 ]
  ret i32 %.09
}